target datalayout = "e-m:e-p270:32:32-p271:32:32-p272:64:64-i64:64-i128:128-f80:128-n8:16:32:64-S128"
target triple = "x86_64-pc-linux-gnu"

%struct.AudioPsyClipContext = type { ptr, double, double, double, double, i32, i32, i32, ptr, ptr, i32, i32, i32, i32, i32, ptr, ptr, ptr, ptr, ptr, ptr, ptr, ptr, ptr, ptr, ptr, ptr, ptr, ptr, ptr, ptr, ptr, ptr }

; Function Attrs: nounwind uwtable
define internal void @set_margin_curve(ptr noundef %0, ptr noundef %1, i32 noundef %2, i32 noundef %3) #2 {
  %5 = alloca ptr, align 8
  %6 = alloca ptr, align 8
  %7 = alloca i32, align 4
  %8 = alloca i32, align 4
  %9 = alloca i32, align 4
  %10 = alloca i32, align 4
  %11 = alloca i32, align 4
  store ptr %0, ptr %5, align 8, !tbaa !22
  store ptr %1, ptr %6, align 8, !tbaa !76
  store i32 %2, ptr %7, align 4, !tbaa !24
  store i32 %3, ptr %8, align 4, !tbaa !24
  call void @llvm.lifetime.start.p0(i64 4, ptr %9) #9
  store i32 0, ptr %9, align 4, !tbaa !24
  %12 = load ptr, ptr %6, align 8, !tbaa !76
  %13 = getelementptr inbounds [2 x i32], ptr %12, i64 0
  %14 = getelementptr inbounds [2 x i32], ptr %13, i64 0, i64 1
  %15 = load i32, ptr %14, align 4, !tbaa !24
  %16 = sitofp i32 %15 to float
  %17 = load ptr, ptr %5, align 8, !tbaa !22
  %18 = getelementptr inbounds nuw %struct.AudioPsyClipContext, ptr %17, i32 0, i32 20
  %19 = load ptr, ptr %18, align 8, !tbaa !66
  %20 = getelementptr inbounds float, ptr %19, i64 0
  store float %16, ptr %20, align 4, !tbaa !52
  call void @llvm.lifetime.start.p0(i64 4, ptr %10) #9
  store i32 0, ptr %10, align 4, !tbaa !24
  br label %21

21:                                               ; preds = %117, %4
  %22 = load i32, ptr %10, align 4, !tbaa !24
  %23 = load i32, ptr %7, align 4, !tbaa !24
  %24 = sub nsw i32 %23, 1
  %25 = icmp slt i32 %22, %24
  br i1 %25, label %27, label %26

26:                                               ; preds = %21
  call void @llvm.lifetime.end.p0(i64 4, ptr %10) #9
  br label %120

27:                                               ; preds = %21
  br label %28

28:                                               ; preds = %54, %27
  %29 = load i32, ptr %9, align 4, !tbaa !24
  %30 = load ptr, ptr %5, align 8, !tbaa !22
  %31 = getelementptr inbounds nuw %struct.AudioPsyClipContext, ptr %30, i32 0, i32 11
  %32 = load i32, ptr %31, align 4, !tbaa !55
  %33 = sdiv i32 %32, 2
  %34 = add nsw i32 %33, 1
  %35 = icmp slt i32 %29, %34
  br i1 %35, label %36, label %52

36:                                               ; preds = %28
  %37 = load i32, ptr %9, align 4, !tbaa !24
  %38 = load i32, ptr %8, align 4, !tbaa !24
  %39 = mul nsw i32 %37, %38
  %40 = load ptr, ptr %5, align 8, !tbaa !22
  %41 = getelementptr inbounds nuw %struct.AudioPsyClipContext, ptr %40, i32 0, i32 11
  %42 = load i32, ptr %41, align 4, !tbaa !55
  %43 = sdiv i32 %39, %42
  %44 = load ptr, ptr %6, align 8, !tbaa !76
  %45 = load i32, ptr %10, align 4, !tbaa !24
  %46 = add nsw i32 %45, 1
  %47 = sext i32 %46 to i64
  %48 = getelementptr inbounds [2 x i32], ptr %44, i64 %47
  %49 = getelementptr inbounds [2 x i32], ptr %48, i64 0, i64 0
  %50 = load i32, ptr %49, align 4, !tbaa !24
  %51 = icmp slt i32 %43, %50
  br label %52

52:                                               ; preds = %36, %28
  %53 = phi i1 [ false, %28 ], [ %51, %36 ]
  br i1 %53, label %54, label %116

54:                                               ; preds = %52
  call void @llvm.lifetime.start.p0(i64 4, ptr %11) #9
  %55 = load i32, ptr %9, align 4, !tbaa !24
  %56 = load i32, ptr %8, align 4, !tbaa !24
  %57 = mul nsw i32 %55, %56
  %58 = load ptr, ptr %5, align 8, !tbaa !22
  %59 = getelementptr inbounds nuw %struct.AudioPsyClipContext, ptr %58, i32 0, i32 11
  %60 = load i32, ptr %59, align 4, !tbaa !55
  %61 = sdiv i32 %57, %60
  store i32 %61, ptr %11, align 4, !tbaa !24
  %62 = load ptr, ptr %6, align 8, !tbaa !76
  %63 = load i32, ptr %10, align 4, !tbaa !24
  %64 = sext i32 %63 to i64
  %65 = getelementptr inbounds [2 x i32], ptr %62, i64 %64
  %66 = getelementptr inbounds [2 x i32], ptr %65, i64 0, i64 1
  %67 = load i32, ptr %66, align 4, !tbaa !24
  %68 = load i32, ptr %11, align 4, !tbaa !24
  %69 = load ptr, ptr %6, align 8, !tbaa !76
  %70 = load i32, ptr %10, align 4, !tbaa !24
  %71 = sext i32 %70 to i64
  %72 = getelementptr inbounds [2 x i32], ptr %69, i64 %71
  %73 = getelementptr inbounds [2 x i32], ptr %72, i64 0, i64 0
  %74 = load i32, ptr %73, align 4, !tbaa !24
  %75 = sub nsw i32 %68, %74
  %76 = load ptr, ptr %6, align 8, !tbaa !76
  %77 = load i32, ptr %10, align 4, !tbaa !24
  %78 = add nsw i32 %77, 1
  %79 = sext i32 %78 to i64
  %80 = getelementptr inbounds [2 x i32], ptr %76, i64 %79
  %81 = getelementptr inbounds [2 x i32], ptr %80, i64 0, i64 1
  %82 = load i32, ptr %81, align 4, !tbaa !24
  %83 = load ptr, ptr %6, align 8, !tbaa !76
  %84 = load i32, ptr %10, align 4, !tbaa !24
  %85 = sext i32 %84 to i64
  %86 = getelementptr inbounds [2 x i32], ptr %83, i64 %85
  %87 = getelementptr inbounds [2 x i32], ptr %86, i64 0, i64 1
  %88 = load i32, ptr %87, align 4, !tbaa !24
  %89 = sub nsw i32 %82, %88
  %90 = mul nsw i32 %75, %89
  %91 = load ptr, ptr %6, align 8, !tbaa !76
  %92 = load i32, ptr %10, align 4, !tbaa !24
  %93 = add nsw i32 %92, 1
  %94 = sext i32 %93 to i64
  %95 = getelementptr inbounds [2 x i32], ptr %91, i64 %94
  %96 = getelementptr inbounds [2 x i32], ptr %95, i64 0, i64 0
  %97 = load i32, ptr %96, align 4, !tbaa !24
  %98 = load ptr, ptr %6, align 8, !tbaa !76
  %99 = load i32, ptr %10, align 4, !tbaa !24
  %100 = sext i32 %99 to i64
  %101 = getelementptr inbounds [2 x i32], ptr %98, i64 %100
  %102 = getelementptr inbounds [2 x i32], ptr %101, i64 0, i64 0
  %103 = load i32, ptr %102, align 4, !tbaa !24
  %104 = sub nsw i32 %97, %103
  %105 = sdiv i32 %90, %104
  %106 = add nsw i32 %67, %105
  %107 = sitofp i32 %106 to float
  %108 = load ptr, ptr %5, align 8, !tbaa !22
  %109 = getelementptr inbounds nuw %struct.AudioPsyClipContext, ptr %108, i32 0, i32 20
  %110 = load ptr, ptr %109, align 8, !tbaa !66
  %111 = load i32, ptr %9, align 4, !tbaa !24
  %112 = sext i32 %111 to i64
  %113 = getelementptr inbounds float, ptr %110, i64 %112
  store float %107, ptr %113, align 4, !tbaa !52
  %114 = load i32, ptr %9, align 4, !tbaa !24
  %115 = add nsw i32 %114, 1
  store i32 %115, ptr %9, align 4, !tbaa !24
  call void @llvm.lifetime.end.p0(i64 4, ptr %11) #9
  br label %28, !llvm.loop !77

116:                                              ; preds = %52
  br label %117

117:                                              ; preds = %116
  %118 = load i32, ptr %10, align 4, !tbaa !24
  %119 = add nsw i32 %118, 1
  store i32 %119, ptr %10, align 4, !tbaa !24
  br label %21, !llvm.loop !78

120:                                              ; preds = %26
  br label %121

121:                                              ; preds = %129, %120
  %122 = load i32, ptr %9, align 4, !tbaa !24
  %123 = load ptr, ptr %5, align 8, !tbaa !22
  %124 = getelementptr inbounds nuw %struct.AudioPsyClipContext, ptr %123, i32 0, i32 11
  %125 = load i32, ptr %124, align 4, !tbaa !55
  %126 = sdiv i32 %125, 2
  %127 = add nsw i32 %126, 1
  %128 = icmp slt i32 %122, %127
  br i1 %128, label %129, label %146

129:                                              ; preds = %121
  %130 = load ptr, ptr %6, align 8, !tbaa !76
  %131 = load i32, ptr %7, align 4, !tbaa !24
  %132 = sub nsw i32 %131, 1
  %133 = sext i32 %132 to i64
  %134 = getelementptr inbounds [2 x i32], ptr %130, i64 %133
  %135 = getelementptr inbounds [2 x i32], ptr %134, i64 0, i64 1
  %136 = load i32, ptr %135, align 4, !tbaa !24
  %137 = sitofp i32 %136 to float
  %138 = load ptr, ptr %5, align 8, !tbaa !22
  %139 = getelementptr inbounds nuw %struct.AudioPsyClipContext, ptr %138, i32 0, i32 20
  %140 = load ptr, ptr %139, align 8, !tbaa !66
  %141 = load i32, ptr %9, align 4, !tbaa !24
  %142 = sext i32 %141 to i64
  %143 = getelementptr inbounds float, ptr %140, i64 %142
  store float %137, ptr %143, align 4, !tbaa !52
  %144 = load i32, ptr %9, align 4, !tbaa !24
  %145 = add nsw i32 %144, 1
  store i32 %145, ptr %9, align 4, !tbaa !24
  br label %121, !llvm.loop !79

146:                                              ; preds = %121
  store i32 0, ptr %9, align 4, !tbaa !24
  br label %147

147:                                              ; preds = %171, %146
  %148 = load i32, ptr %9, align 4, !tbaa !24
  %149 = load ptr, ptr %5, align 8, !tbaa !22
  %150 = getelementptr inbounds nuw %struct.AudioPsyClipContext, ptr %149, i32 0, i32 11
  %151 = load i32, ptr %150, align 4, !tbaa !55
  %152 = sdiv i32 %151, 2
  %153 = add nsw i32 %152, 1
  %154 = icmp slt i32 %148, %153
  br i1 %154, label %155, label %174

155:                                              ; preds = %147
  %156 = load ptr, ptr %5, align 8, !tbaa !22
  %157 = getelementptr inbounds nuw %struct.AudioPsyClipContext, ptr %156, i32 0, i32 20
  %158 = load ptr, ptr %157, align 8, !tbaa !66
  %159 = load i32, ptr %9, align 4, !tbaa !24
  %160 = sext i32 %159 to i64
  %161 = getelementptr inbounds float, ptr %158, i64 %160
  %162 = load float, ptr %161, align 4, !tbaa !52
  %163 = fdiv nsz float %162, 2.000000e+01
  %164 = call nsz float @llvm.pow.f32(float 1.000000e+01, float %163)
  %165 = load ptr, ptr %5, align 8, !tbaa !22
  %166 = getelementptr inbounds nuw %struct.AudioPsyClipContext, ptr %165, i32 0, i32 20
  %167 = load ptr, ptr %166, align 8, !tbaa !66
  %168 = load i32, ptr %9, align 4, !tbaa !24
  %169 = sext i32 %168 to i64
  %170 = getelementptr inbounds float, ptr %167, i64 %169
  store float %164, ptr %170, align 4, !tbaa !52
  br label %171

171:                                              ; preds = %155
  %172 = load i32, ptr %9, align 4, !tbaa !24
  %173 = add nsw i32 %172, 1
  store i32 %173, ptr %9, align 4, !tbaa !24
  br label %147, !llvm.loop !80

174:                                              ; preds = %147
  call void @llvm.lifetime.end.p0(i64 4, ptr %9) #9
  ret void
}