; Function Attrs: nofree norecurse nosync nounwind memory(readwrite, inaccessiblemem: none) uwtable
define internal fastcc void @set_margin_curve(ptr noundef readonly captures(none) %0, i32 noundef %1) unnamed_addr #4 {
  %3 = getelementptr inbounds nuw i8, ptr %0, i64 136
  %4 = load ptr, ptr %3, align 8, !tbaa !72
  store float 1.400000e+01, ptr %4, align 4, !tbaa !57
  %5 = getelementptr inbounds nuw i8, ptr %0, i64 76
  %6 = load i32, ptr %5, align 4, !tbaa !60
  %7 = sdiv i32 %6, 2
  %8 = sext i32 %7 to i64
  %9 = add nsw i32 %7, 1
  br label %.preheader2

.preheader2:                                      ; preds = %2, %.critedge
  %indvars.iv17 = phi i64 [ 0, %2 ], [ %indvars.iv.next18, %.critedge ]
  %.08 = phi i32 [ 0, %2 ], [ %.1.lcssa, %.critedge ]
  %.not493 = icmp sgt i32 %.08, %7
  br i1 %.not493, label %.critedge, label %.lr.ph

.lr.ph:                                           ; preds = %.preheader2
  %10 = getelementptr inbounds nuw [2 x i32], ptr @config_input.points, i64 %indvars.iv17
  %11 = getelementptr inbounds nuw i8, ptr %10, i64 8
  %12 = load i32, ptr %11, align 8, !tbaa !55
  %13 = getelementptr inbounds nuw i8, ptr %10, i64 4
  %14 = getelementptr inbounds nuw i8, ptr %10, i64 12
  %15 = sext i32 %.08 to i64
  br label %17

.preheader1:                                      ; preds = %.critedge
  %.not9 = icmp sgt i32 %.1.lcssa, %7
  br i1 %.not9, label %.preheader, label %.lr.ph11.preheader

.lr.ph11.preheader:                               ; preds = %.preheader1
  %16 = sext i32 %.1.lcssa to i64
  br label %.lr.ph11

17:                                               ; preds = %.lr.ph, %22
  %indvars.iv = phi i64 [ %15, %.lr.ph ], [ %indvars.iv.next, %22 ]
  %18 = trunc i64 %indvars.iv to i32
  %19 = mul i32 %1, %18
  %20 = sdiv i32 %19, %6
  %21 = icmp slt i32 %20, %12
  br i1 %21, label %22, label %.critedge.loopexit.split.loop.exit

22:                                               ; preds = %17
  %23 = load i32, ptr %13, align 4, !tbaa !55
  %24 = load i32, ptr %10, align 8, !tbaa !55
  %25 = sub nsw i32 %20, %24
  %26 = load i32, ptr %14, align 4, !tbaa !55
  %27 = sub nsw i32 %26, %23
  %28 = mul nsw i32 %27, %25
  %29 = sub nsw i32 %12, %24
  %30 = sdiv i32 %28, %29
  %31 = add nsw i32 %30, %23
  %32 = sitofp i32 %31 to float
  %33 = getelementptr inbounds float, ptr %4, i64 %indvars.iv
  store float %32, ptr %33, align 4, !tbaa !57
  %indvars.iv.next = add nsw i64 %indvars.iv, 1
  %.not49.not = icmp slt i64 %indvars.iv, %8
  br i1 %.not49.not, label %17, label %.critedge, !llvm.loop !79

.critedge.loopexit.split.loop.exit:               ; preds = %17
  %34 = trunc nsw i64 %indvars.iv to i32
  br label %.critedge

.critedge:                                        ; preds = %22, %.critedge.loopexit.split.loop.exit, %.preheader2
  %.1.lcssa = phi i32 [ %.08, %.preheader2 ], [ %34, %.critedge.loopexit.split.loop.exit ], [ %9, %22 ]
  %indvars.iv.next18 = add nuw nsw i64 %indvars.iv17, 1
  %exitcond.not = icmp eq i64 %indvars.iv.next18, 9
  br i1 %exitcond.not, label %.preheader1, label %.preheader2, !llvm.loop !80

.preheader:                                       ; preds = %.lr.ph11, %.preheader1
  %.not4813 = icmp slt i32 %6, -1
  br i1 %.not4813, label %._crit_edge, label %.lr.ph15.preheader

.lr.ph15.preheader:                               ; preds = %.preheader
  %wide.trip.count = zext i32 %9 to i64
  br label %.lr.ph15

.lr.ph11:                                         ; preds = %.lr.ph11.preheader, %.lr.ph11
  %indvars.iv21 = phi i64 [ %16, %.lr.ph11.preheader ], [ %indvars.iv.next22, %.lr.ph11 ]
  %35 = getelementptr inbounds float, ptr %4, i64 %indvars.iv21
  store float -1.000000e+01, ptr %35, align 4, !tbaa !57
  %indvars.iv.next22 = add nsw i64 %indvars.iv21, 1
  %lftr.wideiv = trunc i64 %indvars.iv.next22 to i32
  %exitcond24.not = icmp eq i32 %9, %lftr.wideiv
  br i1 %exitcond24.not, label %.preheader, label %.lr.ph11, !llvm.loop !81

.lr.ph15:                                         ; preds = %.lr.ph15.preheader, %.lr.ph15
  %indvars.iv25 = phi i64 [ 0, %.lr.ph15.preheader ], [ %indvars.iv.next26, %.lr.ph15 ]
  %36 = getelementptr inbounds nuw float, ptr %4, i64 %indvars.iv25
  %37 = load float, ptr %36, align 4, !tbaa !57
  %38 = fdiv nsz float %37, 2.000000e+01
  %39 = tail call nsz float @llvm.pow.f32(float 1.000000e+01, float %38)
  store float %39, ptr %36, align 4, !tbaa !57
  %indvars.iv.next26 = add nuw nsw i64 %indvars.iv25, 1
  %exitcond28.not = icmp eq i64 %indvars.iv.next26, %wide.trip.count
  br i1 %exitcond28.not, label %._crit_edge, label %.lr.ph15, !llvm.loop !82

._crit_edge:                                      ; preds = %.lr.ph15, %.preheader
  ret void
}